target datalayout = "e-m:e-p270:32:32-p271:32:32-p272:64:64-i64:64-i128:128-f80:128-n8:16:32:64-S128"
target triple = "x86_64-unknown-linux-gnu"

%"class.node::MemoryRetainer" = type { ptr }
%"class.node::quic::RetryToken" = type { %"class.node::MemoryRetainer", [78 x i8], %struct.ngtcp2_vec }
%struct.ngtcp2_vec = type { ptr, i64 }

; Function Attrs: mustprogress nounwind uwtable
define linkonce_odr dso_local void @_ZN4node14MemoryRetainerC2Ev(ptr noundef nonnull align 8 dereferenceable(8) %this) unnamed_addr #4 comdat align 2 {
entry:
  %this.addr = alloca ptr, align 8
  store ptr %this, ptr %this.addr, align 8
  %this1 = load ptr, ptr %this.addr, align 8
  store ptr getelementptr inbounds ({ [10 x ptr] }, ptr @_ZTVN4node14MemoryRetainerE, i32 0, i32 0, i32 2), ptr %this1, align 8
  ret void
}

; Function Attrs: mustprogress nounwind uwtable
define dso_local void @_ZN4node4quic10RetryTokenC2EPKhm(ptr noundef nonnull align 8 dereferenceable(104) %this, ptr noundef %token, i64 noundef %size) unnamed_addr #4 align 2 {
entry:
  %this.addr = alloca ptr, align 8
  %token.addr = alloca ptr, align 8
  %size.addr = alloca i64, align 8
  store ptr %this, ptr %this.addr, align 8
  store ptr %token, ptr %token.addr, align 8
  store i64 %size, ptr %size.addr, align 8
  %this1 = load ptr, ptr %this.addr, align 8
  call void @_ZN4node14MemoryRetainerC2Ev(ptr noundef nonnull align 8 dereferenceable(8) %this1) #3
  store ptr getelementptr inbounds ({ [10 x ptr] }, ptr @_ZTVN4node4quic10RetryTokenE, i32 0, i32 0, i32 2), ptr %this1, align 8
  %ptr_ = getelementptr inbounds %"class.node::quic::RetryToken", ptr %this1, i32 0, i32 2
  %base = getelementptr inbounds %struct.ngtcp2_vec, ptr %ptr_, i32 0, i32 0
  %0 = load ptr, ptr %token.addr, align 8
  store ptr %0, ptr %base, align 8
  %len = getelementptr inbounds %struct.ngtcp2_vec, ptr %ptr_, i32 0, i32 1
  %1 = load i64, ptr %size.addr, align 8
  store i64 %1, ptr %len, align 8
  ret void
}