; Function Attrs: mustprogress nofree norecurse nosync nounwind willreturn memory(argmem: write) uwtable
define dso_local void @_ZN4node4quic10RetryTokenC2EPKhm(ptr nocapture noundef nonnull writeonly align 8 dereferenceable(104) %this, ptr noundef %token, i64 noundef %size) unnamed_addr #8 align 2 {
entry:
  store ptr getelementptr inbounds ({ [10 x ptr] }, ptr @_ZTVN4node4quic10RetryTokenE, i64 0, i32 0, i64 2), ptr %this, align 8
  %ptr_ = getelementptr inbounds i8, ptr %this, i64 88
  store ptr %token, ptr %ptr_, align 8
  %len = getelementptr inbounds i8, ptr %this, i64 96
  store i64 %size, ptr %len, align 8
  ret void
}